target datalayout = "e-m:e-p270:32:32-p271:32:32-p272:64:64-i64:64-i128:128-f80:128-n8:16:32:64-S128"
target triple = "x86_64-pc-linux-gnu"

; Function Attrs: nounwind uwtable
define ptr @Dau_DecFindSets(ptr noundef %0, i32 noundef %1) #0 {
  %3 = alloca ptr, align 8
  %4 = alloca i32, align 4
  %5 = alloca ptr, align 8
  %6 = alloca i32, align 4
  %7 = alloca [16 x ptr], align 16
  store ptr %0, ptr %3, align 8, !tbaa !3
  store i32 %1, ptr %4, align 4, !tbaa !8
  call void @llvm.lifetime.start.p0(i64 8, ptr %5) #11
  call void @llvm.lifetime.start.p0(i64 4, ptr %6) #11
  call void @llvm.lifetime.start.p0(i64 128, ptr %7) #11
  call void @llvm.memset.p0.i64(ptr align 16 %7, i8 0, i64 128, i1 false)
  store i32 2, ptr %6, align 4, !tbaa !8
  br label %8

8:                                                ; preds = %18, %2
  %9 = load i32, ptr %6, align 4, !tbaa !8
  %10 = load i32, ptr %4, align 4, !tbaa !8
  %11 = icmp slt i32 %9, %10
  br i1 %11, label %12, label %21

12:                                               ; preds = %8
  %13 = load i32, ptr %6, align 4, !tbaa !8
  %14 = call ptr @Extra_GreyCodeSchedule(i32 noundef %13)
  %15 = load i32, ptr %6, align 4, !tbaa !8
  %16 = sext i32 %15 to i64
  %17 = getelementptr inbounds [16 x ptr], ptr %7, i64 0, i64 %16
  store ptr %14, ptr %17, align 8, !tbaa !10
  br label %18

18:                                               ; preds = %12
  %19 = load i32, ptr %6, align 4, !tbaa !8
  %20 = add nsw i32 %19, 1
  store i32 %20, ptr %6, align 4, !tbaa !8
  br label %8, !llvm.loop !55

21:                                               ; preds = %8
  %22 = load ptr, ptr %3, align 8, !tbaa !3
  %23 = load i32, ptr %4, align 4, !tbaa !8
  %24 = getelementptr inbounds [16 x ptr], ptr %7, i64 0, i64 0
  %25 = call ptr @Dau_DecFindSets_int(ptr noundef %22, i32 noundef %23, ptr noundef %24)
  store ptr %25, ptr %5, align 8, !tbaa !36
  store i32 2, ptr %6, align 4, !tbaa !8
  br label %26

26:                                               ; preds = %46, %21
  %27 = load i32, ptr %6, align 4, !tbaa !8
  %28 = load i32, ptr %4, align 4, !tbaa !8
  %29 = icmp slt i32 %27, %28
  br i1 %29, label %30, label %49

30:                                               ; preds = %26
  %31 = load i32, ptr %6, align 4, !tbaa !8
  %32 = sext i32 %31 to i64
  %33 = getelementptr inbounds [16 x ptr], ptr %7, i64 0, i64 %32
  %34 = load ptr, ptr %33, align 8, !tbaa !10
  %35 = icmp ne ptr %34, null
  br i1 %35, label %36, label %44

36:                                               ; preds = %30
  %37 = load i32, ptr %6, align 4, !tbaa !8
  %38 = sext i32 %37 to i64
  %39 = getelementptr inbounds [16 x ptr], ptr %7, i64 0, i64 %38
  %40 = load ptr, ptr %39, align 8, !tbaa !10
  call void @free(ptr noundef %40) #11
  %41 = load i32, ptr %6, align 4, !tbaa !8
  %42 = sext i32 %41 to i64
  %43 = getelementptr inbounds [16 x ptr], ptr %7, i64 0, i64 %42
  store ptr null, ptr %43, align 8, !tbaa !10
  br label %45

44:                                               ; preds = %30
  br label %45

45:                                               ; preds = %44, %36
  br label %46

46:                                               ; preds = %45
  %47 = load i32, ptr %6, align 4, !tbaa !8
  %48 = add nsw i32 %47, 1
  store i32 %48, ptr %6, align 4, !tbaa !8
  br label %26, !llvm.loop !56

49:                                               ; preds = %26
  %50 = load ptr, ptr %5, align 8, !tbaa !36
  call void @llvm.lifetime.end.p0(i64 128, ptr %7) #11
  call void @llvm.lifetime.end.p0(i64 4, ptr %6) #11
  call void @llvm.lifetime.end.p0(i64 8, ptr %5) #11
  ret ptr %50
}