; Function Attrs: nounwind uwtable
define noalias ptr @Dau_DecFindSets(ptr noundef readonly captures(none) %0, i32 noundef %1) local_unnamed_addr #10 {
  %3 = alloca [16 x ptr], align 16
  call void @llvm.lifetime.start.p0(i64 128, ptr nonnull %3) #20
  call void @llvm.memset.p0.i64(ptr noundef nonnull align 16 dereferenceable(128) %3, i8 0, i64 128, i1 false)
  %4 = icmp sgt i32 %1, 2
  br i1 %4, label %.lr.ph.preheader, label %._crit_edge.thread

._crit_edge.thread:                               ; preds = %2
  %5 = call ptr @Dau_DecFindSets_int(ptr noundef %0, i32 noundef %1, ptr noundef nonnull %3)
  br label %._crit_edge19

.lr.ph.preheader:                                 ; preds = %2
  %wide.trip.count = zext nneg i32 %1 to i64
  br label %.lr.ph

.lr.ph:                                           ; preds = %.lr.ph.preheader, %.lr.ph
  %indvars.iv = phi i64 [ 2, %.lr.ph.preheader ], [ %indvars.iv.next, %.lr.ph ]
  %6 = trunc nuw nsw i64 %indvars.iv to i32
  %7 = tail call ptr @Extra_GreyCodeSchedule(i32 noundef %6) #20
  %8 = getelementptr inbounds nuw [16 x ptr], ptr %3, i64 0, i64 %indvars.iv
  store ptr %7, ptr %8, align 8, !tbaa !46
  %indvars.iv.next = add nuw nsw i64 %indvars.iv, 1
  %exitcond.not = icmp eq i64 %indvars.iv.next, %wide.trip.count
  br i1 %exitcond.not, label %._crit_edge, label %.lr.ph, !llvm.loop !54

._crit_edge:                                      ; preds = %.lr.ph
  %9 = call ptr @Dau_DecFindSets_int(ptr noundef %0, i32 noundef %1, ptr noundef nonnull %3)
  %wide.trip.count24 = zext nneg i32 %1 to i64
  br label %.lr.ph18

.lr.ph18:                                         ; preds = %._crit_edge, %13
  %indvars.iv21 = phi i64 [ 2, %._crit_edge ], [ %indvars.iv.next22, %13 ]
  %10 = getelementptr inbounds nuw [16 x ptr], ptr %3, i64 0, i64 %indvars.iv21
  %11 = load ptr, ptr %10, align 8, !tbaa !46
  %.not = icmp eq ptr %11, null
  br i1 %.not, label %13, label %12

12:                                               ; preds = %.lr.ph18
  tail call void @free(ptr noundef nonnull %11) #20
  store ptr null, ptr %10, align 8, !tbaa !46
  br label %13

13:                                               ; preds = %12, %.lr.ph18
  %indvars.iv.next22 = add nuw nsw i64 %indvars.iv21, 1
  %exitcond25.not = icmp eq i64 %indvars.iv.next22, %wide.trip.count24
  br i1 %exitcond25.not, label %._crit_edge19, label %.lr.ph18, !llvm.loop !55

._crit_edge19:                                    ; preds = %13, %._crit_edge.thread
  %14 = phi ptr [ %5, %._crit_edge.thread ], [ %9, %13 ]
  call void @llvm.lifetime.end.p0(i64 128, ptr nonnull %3) #20
  ret ptr %14
}